target datalayout = "e-m:e-p270:32:32-p271:32:32-p272:64:64-i64:64-i128:128-f80:128-n8:16:32:64-S128"
target triple = "x86_64-pc-linux-gnu"

%struct.WOLFSSL_BUFFER_INFO = type { ptr, i32 }
%struct.WOLFSSL = type <{ ptr, ptr, ptr, ptr, [48 x i8], [48 x i8], ptr, ptr, ptr, ptr, ptr, ptr, ptr, ptr, ptr, ptr, ptr, ptr, ptr, i32, [4 x i8], %struct.WOLFSSL_CIPHER, ptr, %struct.Ciphers, %struct.Ciphers, [8 x i8], %struct.Buffers, ptr, ptr, %struct.WOLFSSL_ALERT_HISTORY, %struct.WOLFSSL_ALERT, i32, i32, i32, i32, i32, i32, i32, i16, [2 x i8], i32, i8, %struct.RecordLayerHeader, %struct.MsgsReceived, %struct.ProtocolVersion, %struct.ProtocolVersion, %struct.CipherSpecs, [2 x i8], %struct.Keys, %struct.Options, ptr, i8, i8, i16, [10 x i16], i8, i8, i16, i16, [38 x i8], i32, i32, [4 x i8], ptr, i8, i8, [6 x i8], ptr, ptr, i16, i8, i8, i32, i8, [3 x i8], i32, %struct.OneTimeAuth, ptr }>
%struct.WOLFSSL_CIPHER = type { i8, i8, ptr }
%struct.Ciphers = type { ptr, ptr, ptr, ptr, i8, i8 }
%struct.Buffers = type { %struct.bufferStatic, %struct.bufferStatic, %struct.WOLFSSL_BUFFER_INFO, %struct.WOLFSSL_BUFFER_INFO, %struct.WOLFSSL_BUFFER_INFO, %struct.WOLFSSL_BUFFER_INFO, i32, i32, i8, i8, i8, i8, %struct.WOLFSSL_BUFFER_INFO, %struct.WOLFSSL_BUFFER_INFO, %struct.WOLFSSL_BUFFER_INFO, %struct.WOLFSSL_BUFFER_INFO, ptr, ptr, ptr, i8, i8, i32, i32, ptr, i32, [1 x ptr] }
%struct.bufferStatic = type { [5 x i8], ptr, i32, i32, i32, i8, i8 }
%struct.WOLFSSL_ALERT_HISTORY = type { %struct.WOLFSSL_ALERT, %struct.WOLFSSL_ALERT }
%struct.WOLFSSL_ALERT = type { i32, i32 }
%struct.RecordLayerHeader = type { i8, i8, i8, [2 x i8] }
%struct.MsgsReceived = type { i32 }
%struct.ProtocolVersion = type { i8, i8 }
%struct.CipherSpecs = type { i16, i16, i16, i16, i8, i8, i8, i8, i8, i8, i8, i8 }
%struct.Keys = type { [64 x i8], [64 x i8], [32 x i8], [32 x i8], [16 x i8], [16 x i8], [8 x i8], [12 x i8], [12 x i8], i32, i32, i32, i32, i32, i32, i8, i8, i8, i8 }
%struct.Options = type { i64, i64, i8, i8, i8, i8, i8, i8, i8, i8, i8, i8, i8, i8, i8, i8, i8, i8, i8, i8, i8, i8, i8, i16, i16, i16, i16, i16, i8 }
%struct.OneTimeAuth = type { ptr, i8 }

@.str.2 = private unnamed_addr constant [8 x i8] c"unknown\00", align 1
@.str.7 = private unnamed_addr constant [8 x i8] c"Bad arg\00", align 1
@.str.8 = private unnamed_addr constant [6 x i8] c"SSLv3\00", align 1
@.str.9 = private unnamed_addr constant [6 x i8] c"TLSv1\00", align 1
@.str.10 = private unnamed_addr constant [8 x i8] c"TLSv1.1\00", align 1
@.str.11 = private unnamed_addr constant [8 x i8] c"TLSv1.2\00", align 1
@.str.12 = private unnamed_addr constant [8 x i8] c"TLSv1.3\00", align 1

; Function Attrs: nounwind uwtable
define internal ptr @wolfSSL_internal_get_version(ptr noundef %0) #0 {
  %2 = alloca ptr, align 8
  %3 = alloca ptr, align 8
  store ptr %0, ptr %3, align 8, !tbaa !273
  br label %4

4:                                                ; preds = %1
  br label %5

5:                                                ; preds = %4
  %6 = load ptr, ptr %3, align 8, !tbaa !273
  %7 = icmp eq ptr %6, null
  br i1 %7, label %8, label %9

8:                                                ; preds = %5
  store ptr @.str.7, ptr %2, align 8
  br label %27

9:                                                ; preds = %5
  %10 = load ptr, ptr %3, align 8, !tbaa !273
  %11 = getelementptr inbounds nuw %struct.ProtocolVersion, ptr %10, i32 0, i32 0
  %12 = load i8, ptr %11, align 1, !tbaa !275
  %13 = zext i8 %12 to i32
  %14 = icmp eq i32 %13, 3
  br i1 %14, label %15, label %26

15:                                               ; preds = %9
  %16 = load ptr, ptr %3, align 8, !tbaa !273
  %17 = getelementptr inbounds nuw %struct.ProtocolVersion, ptr %16, i32 0, i32 1
  %18 = load i8, ptr %17, align 1, !tbaa !276
  %19 = zext i8 %18 to i32
  switch i32 %19, label %25 [
    i32 0, label %20
    i32 1, label %21
    i32 2, label %22
    i32 3, label %23
    i32 4, label %24
  ]

20:                                               ; preds = %15
  store ptr @.str.8, ptr %2, align 8
  br label %27

21:                                               ; preds = %15
  store ptr @.str.9, ptr %2, align 8
  br label %27

22:                                               ; preds = %15
  store ptr @.str.10, ptr %2, align 8
  br label %27

23:                                               ; preds = %15
  store ptr @.str.11, ptr %2, align 8
  br label %27

24:                                               ; preds = %15
  store ptr @.str.12, ptr %2, align 8
  br label %27

25:                                               ; preds = %15
  store ptr @.str.2, ptr %2, align 8
  br label %27

26:                                               ; preds = %9
  store ptr @.str.2, ptr %2, align 8
  br label %27

27:                                               ; preds = %26, %25, %24, %23, %22, %21, %20, %8
  %28 = load ptr, ptr %2, align 8
  ret ptr %28
}

; Function Attrs: nounwind uwtable
define ptr @wolfSSL_get_version(ptr noundef %0) #0 {
  %2 = alloca ptr, align 8
  %3 = alloca ptr, align 8
  store ptr %0, ptr %3, align 8, !tbaa !61
  %4 = load ptr, ptr %3, align 8, !tbaa !61
  %5 = icmp eq ptr %4, null
  br i1 %5, label %6, label %9

6:                                                ; preds = %1
  br label %7

7:                                                ; preds = %6
  br label %8

8:                                                ; preds = %7
  store ptr @.str.2, ptr %2, align 8
  br label %13

9:                                                ; preds = %1
  %10 = load ptr, ptr %3, align 8, !tbaa !61
  %11 = getelementptr inbounds nuw %struct.WOLFSSL, ptr %10, i32 0, i32 44
  %12 = call ptr @wolfSSL_internal_get_version(ptr noundef %11)
  store ptr %12, ptr %2, align 8
  br label %13

13:                                               ; preds = %9, %8
  %14 = load ptr, ptr %2, align 8
  ret ptr %14
}

; Function Attrs: nounwind uwtable
define ptr @wolfSSL_CIPHER_get_version(ptr noundef %0) #0 {
  %2 = alloca ptr, align 8
  %3 = alloca ptr, align 8
  store ptr %0, ptr %3, align 8, !tbaa !279
  br label %4

4:                                                ; preds = %1
  br label %5

5:                                                ; preds = %4
  %6 = load ptr, ptr %3, align 8, !tbaa !279
  %7 = icmp eq ptr %6, null
  br i1 %7, label %13, label %8

8:                                                ; preds = %5
  %9 = load ptr, ptr %3, align 8, !tbaa !279
  %10 = getelementptr inbounds nuw %struct.WOLFSSL_CIPHER, ptr %9, i32 0, i32 2
  %11 = load ptr, ptr %10, align 8, !tbaa !283
  %12 = icmp eq ptr %11, null
  br i1 %12, label %13, label %14

13:                                               ; preds = %8, %5
  store ptr null, ptr %2, align 8
  br label %19

14:                                               ; preds = %8
  %15 = load ptr, ptr %3, align 8, !tbaa !279
  %16 = getelementptr inbounds nuw %struct.WOLFSSL_CIPHER, ptr %15, i32 0, i32 2
  %17 = load ptr, ptr %16, align 8, !tbaa !283
  %18 = call ptr @wolfSSL_get_version(ptr noundef %17)
  store ptr %18, ptr %2, align 8
  br label %19

19:                                               ; preds = %14, %13
  %20 = load ptr, ptr %2, align 8
  ret ptr %20
}