; Function Attrs: mustprogress nofree norecurse nosync nounwind willreturn memory(read, inaccessiblemem: none) uwtable
define noundef ptr @wolfSSL_CIPHER_get_version(ptr noundef readonly captures(address_is_null) %0) local_unnamed_addr #18 {
  %2 = icmp eq ptr %0, null
  br i1 %2, label %wolfSSL_get_version.exit, label %3

3:                                                ; preds = %1
  %4 = getelementptr inbounds nuw i8, ptr %0, i64 8
  %5 = load ptr, ptr %4, align 8, !tbaa !253
  %6 = icmp eq ptr %5, null
  br i1 %6, label %wolfSSL_get_version.exit, label %7

7:                                                ; preds = %3
  %8 = getelementptr inbounds nuw i8, ptr %5, i64 710
  %9 = load i8, ptr %8, align 1, !tbaa !247
  %10 = icmp eq i8 %9, 3
  br i1 %10, label %11, label %wolfSSL_get_version.exit

11:                                               ; preds = %7
  %12 = getelementptr inbounds nuw i8, ptr %5, i64 711
  %13 = load i8, ptr %12, align 1, !tbaa !248
  %14 = icmp ult i8 %13, 5
  br i1 %14, label %switch.lookup, label %wolfSSL_get_version.exit

switch.lookup:                                    ; preds = %11
  %15 = zext nneg i8 %13 to i64
  %switch.gep = getelementptr inbounds nuw [5 x ptr], ptr @switch.table.wolfSSL_CIPHER_get_version, i64 0, i64 %15
  %switch.load = load ptr, ptr %switch.gep, align 8
  br label %wolfSSL_get_version.exit

wolfSSL_get_version.exit:                         ; preds = %11, %switch.lookup, %7, %1, %3
  %.0 = phi ptr [ null, %3 ], [ null, %1 ], [ @.str.2, %7 ], [ %switch.load, %switch.lookup ], [ @.str.2, %11 ]
  ret ptr %.0
}